target datalayout = "e-m:e-p270:32:32-p271:32:32-p272:64:64-i64:64-i128:128-f80:128-n8:16:32:64-S128"
target triple = "x86_64-pc-linux-gnu"

@H5_libterm_g = external global i8, align 1
@H5T_init_g = external global i8, align 1

; Function Attrs: nounwind uwtable
define internal i32 @H5T__vlen_disk_getlen(ptr noundef %0, ptr noundef %1, ptr noundef %2) #0 {
  %4 = alloca ptr, align 8
  %5 = alloca ptr, align 8
  %6 = alloca ptr, align 8
  %7 = alloca ptr, align 8
  store ptr %0, ptr %4, align 8, !tbaa !30
  store ptr %1, ptr %5, align 8, !tbaa !38
  store ptr %2, ptr %6, align 8, !tbaa !54
  call void @llvm.lifetime.start.p0(i64 8, ptr %7) #9
  %8 = load ptr, ptr %5, align 8, !tbaa !38
  store ptr %8, ptr %7, align 8, !tbaa !53
  %9 = load i8, ptr @H5T_init_g, align 1, !tbaa !10, !range !12, !noundef !13
  %10 = trunc i8 %9 to i1
  br i1 %10, label %15, label %11

11:                                               ; preds = %3
  %12 = load i8, ptr @H5_libterm_g, align 1, !tbaa !10, !range !12, !noundef !13
  %13 = trunc i8 %12 to i1
  %14 = xor i1 %13, true
  br label %15

15:                                               ; preds = %11, %3
  %16 = phi i1 [ true, %3 ], [ %14, %11 ]
  %17 = xor i1 %16, true
  %18 = xor i1 %17, true
  %19 = zext i1 %18 to i32
  %20 = sext i32 %19 to i64
  %21 = call i64 @llvm.expect.i64(i64 %20, i64 1)
  %22 = icmp ne i64 %21, 0
  br i1 %22, label %23, label %68

23:                                               ; preds = %15
  br label %24

24:                                               ; preds = %23
  %25 = load ptr, ptr %7, align 8, !tbaa !53
  %26 = load i8, ptr %25, align 1, !tbaa !29
  %27 = zext i8 %26 to i32
  %28 = and i32 %27, 255
  %29 = zext i32 %28 to i64
  %30 = load ptr, ptr %6, align 8, !tbaa !54
  store i64 %29, ptr %30, align 8, !tbaa !3
  %31 = load ptr, ptr %7, align 8, !tbaa !53
  %32 = getelementptr inbounds nuw i8, ptr %31, i32 1
  store ptr %32, ptr %7, align 8, !tbaa !53
  %33 = load ptr, ptr %7, align 8, !tbaa !53
  %34 = load i8, ptr %33, align 1, !tbaa !29
  %35 = zext i8 %34 to i32
  %36 = and i32 %35, 255
  %37 = shl i32 %36, 8
  %38 = zext i32 %37 to i64
  %39 = load ptr, ptr %6, align 8, !tbaa !54
  %40 = load i64, ptr %39, align 8, !tbaa !3
  %41 = or i64 %40, %38
  store i64 %41, ptr %39, align 8, !tbaa !3
  %42 = load ptr, ptr %7, align 8, !tbaa !53
  %43 = getelementptr inbounds nuw i8, ptr %42, i32 1
  store ptr %43, ptr %7, align 8, !tbaa !53
  %44 = load ptr, ptr %7, align 8, !tbaa !53
  %45 = load i8, ptr %44, align 1, !tbaa !29
  %46 = zext i8 %45 to i32
  %47 = and i32 %46, 255
  %48 = shl i32 %47, 16
  %49 = zext i32 %48 to i64
  %50 = load ptr, ptr %6, align 8, !tbaa !54
  %51 = load i64, ptr %50, align 8, !tbaa !3
  %52 = or i64 %51, %49
  store i64 %52, ptr %50, align 8, !tbaa !3
  %53 = load ptr, ptr %7, align 8, !tbaa !53
  %54 = getelementptr inbounds nuw i8, ptr %53, i32 1
  store ptr %54, ptr %7, align 8, !tbaa !53
  %55 = load ptr, ptr %7, align 8, !tbaa !53
  %56 = load i8, ptr %55, align 1, !tbaa !29
  %57 = zext i8 %56 to i32
  %58 = and i32 %57, 255
  %59 = shl i32 %58, 24
  %60 = zext i32 %59 to i64
  %61 = load ptr, ptr %6, align 8, !tbaa !54
  %62 = load i64, ptr %61, align 8, !tbaa !3
  %63 = or i64 %62, %60
  store i64 %63, ptr %61, align 8, !tbaa !3
  %64 = load ptr, ptr %7, align 8, !tbaa !53
  %65 = getelementptr inbounds nuw i8, ptr %64, i32 1
  store ptr %65, ptr %7, align 8, !tbaa !53
  br label %66

66:                                               ; preds = %24
  br label %67

67:                                               ; preds = %66
  br label %68

68:                                               ; preds = %67, %15
  call void @llvm.lifetime.end.p0(i64 8, ptr %7) #9
  ret i32 0
}