; Function Attrs: mustprogress nofree norecurse nosync nounwind willreturn memory(read, argmem: readwrite, inaccessiblemem: none) uwtable
define internal noundef i32 @H5T__vlen_disk_getlen(ptr readnone captures(none) %0, ptr noundef readonly captures(none) %1, ptr noundef writeonly captures(none) %2) #6 {
  %4 = load i8, ptr @H5T_init_g, align 1, !tbaa !3, !range !7, !noundef !8
  %5 = trunc nuw i8 %4 to i1
  %6 = load i8, ptr @H5_libterm_g, align 1, !range !7
  %7 = trunc nuw i8 %6 to i1
  %8 = xor i1 %7, true
  %9 = select i1 %5, i1 true, i1 %8
  br i1 %9, label %10, label %28, !prof !9

10:                                               ; preds = %3
  %11 = load i8, ptr %1, align 1, !tbaa !32
  %12 = zext i8 %11 to i64
  store i64 %12, ptr %2, align 8, !tbaa !11
  %13 = getelementptr inbounds nuw i8, ptr %1, i64 1
  %14 = load i8, ptr %13, align 1, !tbaa !32
  %15 = zext i8 %14 to i64
  %16 = shl nuw nsw i64 %15, 8
  %17 = or disjoint i64 %16, %12
  store i64 %17, ptr %2, align 8, !tbaa !11
  %18 = getelementptr inbounds nuw i8, ptr %1, i64 2
  %19 = load i8, ptr %18, align 1, !tbaa !32
  %20 = zext i8 %19 to i64
  %21 = shl nuw nsw i64 %20, 16
  %22 = or disjoint i64 %21, %17
  store i64 %22, ptr %2, align 8, !tbaa !11
  %23 = getelementptr inbounds nuw i8, ptr %1, i64 3
  %24 = load i8, ptr %23, align 1, !tbaa !32
  %25 = zext i8 %24 to i64
  %26 = shl nuw nsw i64 %25, 24
  %27 = or disjoint i64 %26, %22
  store i64 %27, ptr %2, align 8, !tbaa !11
  br label %28

28:                                               ; preds = %10, %3
  ret i32 0
}